target datalayout = "e-m:e-p270:32:32-p271:32:32-p272:64:64-i64:64-i128:128-f80:128-n8:16:32:64-S128"
target triple = "x86_64-pc-linux-gnu"

%struct.tcpcl_dissect_ctx_t = type { ptr, ptr, i8, ptr, ptr, ptr }
%struct.tcpcl_conversation_t = type { ptr, ptr, ptr, i8, i8, ptr, i8, i16 }
%struct.tcpcl_peer_t = type { %struct._address, i32, i8, ptr, i8, i8, ptr, i16, i64, i64, ptr, i8, ptr, ptr }
%struct._address = type { i32, i32, ptr, ptr }
%struct._packet_info = type { ptr, ptr, i32, i32, %struct.nstime_t, %struct.nstime_t, %struct.nstime_t, i8, ptr, ptr, ptr, ptr, %struct._address, %struct._address, %struct._address, %struct._address, %struct._address, %struct._address, i32, ptr, i8, [3 x i8], %struct.anon, i32, i32, i32, i32, ptr, i8, ptr, ptr, i16, i16, i32, i32, i16, i32, i32, ptr, ptr, ptr, i8, i8, i16, i16, i16, i32, i16, i16, ptr, ptr, ptr, ptr, ptr, i32, i32 }
%struct.nstime_t = type { i64, i32 }
%struct.anon = type { i8, [3 x i8] }

@tcpcl_handle = internal global ptr null, align 8
@tls_handle = internal global ptr null, align 8
@.str.297 = private unnamed_addr constant [12 x i8] c" [STARTTLS]\00", align 1

; Function Attrs: null_pointer_is_valid sspstrong uwtable
define internal ptr @tcpcl_frame_loc_clone(ptr noundef %0, ptr noundef %1) #0 {
  %3 = alloca ptr, align 8
  %4 = alloca ptr, align 8
  %5 = alloca ptr, align 8
  store ptr %0, ptr %3, align 8
  store ptr %1, ptr %4, align 8
  call void @llvm.lifetime.start.p0(i64 8, ptr %5) #11
  %6 = load ptr, ptr %3, align 8
  %7 = call noalias ptr @wmem_alloc(ptr noundef %6, i64 noundef 12) #12
  store ptr %7, ptr %5, align 8
  %8 = load ptr, ptr %5, align 8
  %9 = load ptr, ptr %4, align 8
  call void @llvm.memcpy.p0.p0.i64(ptr align 4 %8, ptr align 4 %9, i64 12, i1 false)
  %10 = load ptr, ptr %5, align 8
  call void @llvm.lifetime.end.p0(i64 8, ptr %5) #11
  ret ptr %10
}

; Function Attrs: null_pointer_is_valid sspstrong uwtable
define internal void @try_negotiate(ptr noundef %0, ptr noundef %1) #0 {
  %3 = alloca ptr, align 8
  %4 = alloca ptr, align 8
  store ptr %0, ptr %3, align 8
  store ptr %1, ptr %4, align 8
  %5 = load ptr, ptr %3, align 8
  %6 = getelementptr inbounds nuw %struct.tcpcl_dissect_ctx_t, ptr %5, i32 0, i32 0
  %7 = load ptr, ptr %6, align 8
  %8 = getelementptr inbounds nuw %struct.tcpcl_conversation_t, ptr %7, i32 0, i32 3
  %9 = load i8, ptr %8, align 8, !range !6, !noundef !7
  %10 = trunc i8 %9 to i1
  br i1 %10, label %90, label %11

11:                                               ; preds = %2
  %12 = load ptr, ptr %3, align 8
  %13 = getelementptr inbounds nuw %struct.tcpcl_dissect_ctx_t, ptr %12, i32 0, i32 0
  %14 = load ptr, ptr %13, align 8
  %15 = getelementptr inbounds nuw %struct.tcpcl_conversation_t, ptr %14, i32 0, i32 0
  %16 = load ptr, ptr %15, align 8
  %17 = getelementptr inbounds nuw %struct.tcpcl_peer_t, ptr %16, i32 0, i32 3
  %18 = load ptr, ptr %17, align 8
  %19 = icmp ne ptr %18, null
  br i1 %19, label %20, label %90

20:                                               ; preds = %11
  %21 = load ptr, ptr %3, align 8
  %22 = getelementptr inbounds nuw %struct.tcpcl_dissect_ctx_t, ptr %21, i32 0, i32 0
  %23 = load ptr, ptr %22, align 8
  %24 = getelementptr inbounds nuw %struct.tcpcl_conversation_t, ptr %23, i32 0, i32 1
  %25 = load ptr, ptr %24, align 8
  %26 = getelementptr inbounds nuw %struct.tcpcl_peer_t, ptr %25, i32 0, i32 3
  %27 = load ptr, ptr %26, align 8
  %28 = icmp ne ptr %27, null
  br i1 %28, label %29, label %90

29:                                               ; preds = %20
  %30 = load ptr, ptr %3, align 8
  %31 = getelementptr inbounds nuw %struct.tcpcl_dissect_ctx_t, ptr %30, i32 0, i32 0
  %32 = load ptr, ptr %31, align 8
  %33 = getelementptr inbounds nuw %struct.tcpcl_conversation_t, ptr %32, i32 0, i32 0
  %34 = load ptr, ptr %33, align 8
  %35 = getelementptr inbounds nuw %struct.tcpcl_peer_t, ptr %34, i32 0, i32 5
  %36 = load i8, ptr %35, align 1, !range !6, !noundef !7
  %37 = trunc i8 %36 to i1
  %38 = zext i1 %37 to i32
  %39 = load ptr, ptr %3, align 8
  %40 = getelementptr inbounds nuw %struct.tcpcl_dissect_ctx_t, ptr %39, i32 0, i32 0
  %41 = load ptr, ptr %40, align 8
  %42 = getelementptr inbounds nuw %struct.tcpcl_conversation_t, ptr %41, i32 0, i32 1
  %43 = load ptr, ptr %42, align 8
  %44 = getelementptr inbounds nuw %struct.tcpcl_peer_t, ptr %43, i32 0, i32 5
  %45 = load i8, ptr %44, align 1, !range !6, !noundef !7
  %46 = trunc i8 %45 to i1
  %47 = zext i1 %46 to i32
  %48 = and i32 %38, %47
  %49 = icmp ne i32 %48, 0
  %50 = load ptr, ptr %3, align 8
  %51 = getelementptr inbounds nuw %struct.tcpcl_dissect_ctx_t, ptr %50, i32 0, i32 0
  %52 = load ptr, ptr %51, align 8
  %53 = getelementptr inbounds nuw %struct.tcpcl_conversation_t, ptr %52, i32 0, i32 4
  %54 = zext i1 %49 to i8
  store i8 %54, ptr %53, align 1
  %55 = load ptr, ptr %3, align 8
  %56 = getelementptr inbounds nuw %struct.tcpcl_dissect_ctx_t, ptr %55, i32 0, i32 0
  %57 = load ptr, ptr %56, align 8
  %58 = getelementptr inbounds nuw %struct.tcpcl_conversation_t, ptr %57, i32 0, i32 3
  store i8 1, ptr %58, align 8
  %59 = load ptr, ptr %3, align 8
  %60 = getelementptr inbounds nuw %struct.tcpcl_dissect_ctx_t, ptr %59, i32 0, i32 0
  %61 = load ptr, ptr %60, align 8
  %62 = getelementptr inbounds nuw %struct.tcpcl_conversation_t, ptr %61, i32 0, i32 4
  %63 = load i8, ptr %62, align 1, !range !6, !noundef !7
  %64 = trunc i8 %63 to i1
  br i1 %64, label %65, label %89

65:                                               ; preds = %29
  %66 = load ptr, ptr %3, align 8
  %67 = getelementptr inbounds nuw %struct.tcpcl_dissect_ctx_t, ptr %66, i32 0, i32 0
  %68 = load ptr, ptr %67, align 8
  %69 = getelementptr inbounds nuw %struct.tcpcl_conversation_t, ptr %68, i32 0, i32 5
  %70 = load ptr, ptr %69, align 8
  %71 = icmp ne ptr %70, null
  br i1 %71, label %89, label %72

72:                                               ; preds = %65
  %73 = load ptr, ptr %4, align 8
  %74 = getelementptr inbounds nuw %struct._packet_info, ptr %73, i32 0, i32 1
  %75 = load ptr, ptr %74, align 8
  call void @col_append_str(ptr noundef %75, i32 noundef 25, ptr noundef @.str.297)
  %76 = call ptr @wmem_file_scope()
  %77 = load ptr, ptr %3, align 8
  %78 = getelementptr inbounds nuw %struct.tcpcl_dissect_ctx_t, ptr %77, i32 0, i32 1
  %79 = load ptr, ptr %78, align 8
  %80 = call ptr @tcpcl_frame_loc_clone(ptr noundef %76, ptr noundef %79)
  %81 = load ptr, ptr %3, align 8
  %82 = getelementptr inbounds nuw %struct.tcpcl_dissect_ctx_t, ptr %81, i32 0, i32 0
  %83 = load ptr, ptr %82, align 8
  %84 = getelementptr inbounds nuw %struct.tcpcl_conversation_t, ptr %83, i32 0, i32 5
  store ptr %80, ptr %84, align 8
  %85 = load ptr, ptr @tls_handle, align 8
  %86 = load ptr, ptr %4, align 8
  %87 = load ptr, ptr @tcpcl_handle, align 8
  %88 = call i32 @ssl_starttls_ack(ptr noundef %85, ptr noundef %86, ptr noundef %87)
  br label %89

89:                                               ; preds = %72, %65, %29
  br label %90

90:                                               ; preds = %89, %20, %11, %2
  %91 = load ptr, ptr %3, align 8
  %92 = getelementptr inbounds nuw %struct.tcpcl_dissect_ctx_t, ptr %91, i32 0, i32 0
  %93 = load ptr, ptr %92, align 8
  %94 = getelementptr inbounds nuw %struct.tcpcl_conversation_t, ptr %93, i32 0, i32 6
  %95 = load i8, ptr %94, align 8, !range !6, !noundef !7
  %96 = trunc i8 %95 to i1
  br i1 %96, label %162, label %97

97:                                               ; preds = %90
  %98 = load ptr, ptr %3, align 8
  %99 = getelementptr inbounds nuw %struct.tcpcl_dissect_ctx_t, ptr %98, i32 0, i32 0
  %100 = load ptr, ptr %99, align 8
  %101 = getelementptr inbounds nuw %struct.tcpcl_conversation_t, ptr %100, i32 0, i32 0
  %102 = load ptr, ptr %101, align 8
  %103 = getelementptr inbounds nuw %struct.tcpcl_peer_t, ptr %102, i32 0, i32 6
  %104 = load ptr, ptr %103, align 8
  %105 = icmp ne ptr %104, null
  br i1 %105, label %106, label %162

106:                                              ; preds = %97
  %107 = load ptr, ptr %3, align 8
  %108 = getelementptr inbounds nuw %struct.tcpcl_dissect_ctx_t, ptr %107, i32 0, i32 0
  %109 = load ptr, ptr %108, align 8
  %110 = getelementptr inbounds nuw %struct.tcpcl_conversation_t, ptr %109, i32 0, i32 1
  %111 = load ptr, ptr %110, align 8
  %112 = getelementptr inbounds nuw %struct.tcpcl_peer_t, ptr %111, i32 0, i32 6
  %113 = load ptr, ptr %112, align 8
  %114 = icmp ne ptr %113, null
  br i1 %114, label %115, label %162

115:                                              ; preds = %106
  %116 = load ptr, ptr %3, align 8
  %117 = getelementptr inbounds nuw %struct.tcpcl_dissect_ctx_t, ptr %116, i32 0, i32 0
  %118 = load ptr, ptr %117, align 8
  %119 = getelementptr inbounds nuw %struct.tcpcl_conversation_t, ptr %118, i32 0, i32 0
  %120 = load ptr, ptr %119, align 8
  %121 = getelementptr inbounds nuw %struct.tcpcl_peer_t, ptr %120, i32 0, i32 7
  %122 = load i16, ptr %121, align 8
  %123 = zext i16 %122 to i32
  %124 = load ptr, ptr %3, align 8
  %125 = getelementptr inbounds nuw %struct.tcpcl_dissect_ctx_t, ptr %124, i32 0, i32 0
  %126 = load ptr, ptr %125, align 8
  %127 = getelementptr inbounds nuw %struct.tcpcl_conversation_t, ptr %126, i32 0, i32 1
  %128 = load ptr, ptr %127, align 8
  %129 = getelementptr inbounds nuw %struct.tcpcl_peer_t, ptr %128, i32 0, i32 7
  %130 = load i16, ptr %129, align 8
  %131 = zext i16 %130 to i32
  %132 = icmp slt i32 %123, %131
  br i1 %132, label %133, label %142

133:                                              ; preds = %115
  %134 = load ptr, ptr %3, align 8
  %135 = getelementptr inbounds nuw %struct.tcpcl_dissect_ctx_t, ptr %134, i32 0, i32 0
  %136 = load ptr, ptr %135, align 8
  %137 = getelementptr inbounds nuw %struct.tcpcl_conversation_t, ptr %136, i32 0, i32 0
  %138 = load ptr, ptr %137, align 8
  %139 = getelementptr inbounds nuw %struct.tcpcl_peer_t, ptr %138, i32 0, i32 7
  %140 = load i16, ptr %139, align 8
  %141 = zext i16 %140 to i32
  br label %151

142:                                              ; preds = %115
  %143 = load ptr, ptr %3, align 8
  %144 = getelementptr inbounds nuw %struct.tcpcl_dissect_ctx_t, ptr %143, i32 0, i32 0
  %145 = load ptr, ptr %144, align 8
  %146 = getelementptr inbounds nuw %struct.tcpcl_conversation_t, ptr %145, i32 0, i32 1
  %147 = load ptr, ptr %146, align 8
  %148 = getelementptr inbounds nuw %struct.tcpcl_peer_t, ptr %147, i32 0, i32 7
  %149 = load i16, ptr %148, align 8
  %150 = zext i16 %149 to i32
  br label %151

151:                                              ; preds = %142, %133
  %152 = phi i32 [ %141, %133 ], [ %150, %142 ]
  %153 = trunc i32 %152 to i16
  %154 = load ptr, ptr %3, align 8
  %155 = getelementptr inbounds nuw %struct.tcpcl_dissect_ctx_t, ptr %154, i32 0, i32 0
  %156 = load ptr, ptr %155, align 8
  %157 = getelementptr inbounds nuw %struct.tcpcl_conversation_t, ptr %156, i32 0, i32 7
  store i16 %153, ptr %157, align 2
  %158 = load ptr, ptr %3, align 8
  %159 = getelementptr inbounds nuw %struct.tcpcl_dissect_ctx_t, ptr %158, i32 0, i32 0
  %160 = load ptr, ptr %159, align 8
  %161 = getelementptr inbounds nuw %struct.tcpcl_conversation_t, ptr %160, i32 0, i32 6
  store i8 1, ptr %161, align 8
  br label %162

162:                                              ; preds = %151, %106, %97, %90
  ret void
}