; Function Attrs: null_pointer_is_valid sspstrong uwtable
define internal fastcc void @try_negotiate(ptr noundef nonnull readonly captures(none) %0, ptr noundef %1) unnamed_addr #0 {
  %3 = load ptr, ptr %0, align 8
  %4 = getelementptr inbounds nuw i8, ptr %3, i64 24
  %5 = load i8, ptr %4, align 8, !range !8, !noundef !9
  %6 = trunc nuw i8 %5 to i1
  br i1 %6, label %44, label %7

7:                                                ; preds = %2
  %8 = load ptr, ptr %3, align 8
  %9 = getelementptr inbounds nuw i8, ptr %8, i64 32
  %10 = load ptr, ptr %9, align 8
  %.not = icmp eq ptr %10, null
  br i1 %.not, label %44, label %11

11:                                               ; preds = %7
  %12 = getelementptr inbounds nuw i8, ptr %3, i64 8
  %13 = load ptr, ptr %12, align 8
  %14 = getelementptr inbounds nuw i8, ptr %13, i64 32
  %15 = load ptr, ptr %14, align 8
  %.not23 = icmp eq ptr %15, null
  br i1 %.not23, label %44, label %16

16:                                               ; preds = %11
  %17 = getelementptr inbounds nuw i8, ptr %8, i64 41
  %18 = load i8, ptr %17, align 1, !range !8, !noundef !9
  %19 = getelementptr inbounds nuw i8, ptr %13, i64 41
  %20 = load i8, ptr %19, align 1, !range !8, !noundef !9
  %21 = and i8 %20, %18
  %22 = getelementptr inbounds nuw i8, ptr %3, i64 25
  store i8 %21, ptr %22, align 1
  %23 = load ptr, ptr %0, align 8
  %24 = getelementptr inbounds nuw i8, ptr %23, i64 24
  store i8 1, ptr %24, align 8
  %25 = load ptr, ptr %0, align 8
  %26 = getelementptr inbounds nuw i8, ptr %25, i64 25
  %27 = load i8, ptr %26, align 1, !range !8, !noundef !9
  %28 = trunc nuw i8 %27 to i1
  br i1 %28, label %29, label %44

29:                                               ; preds = %16
  %30 = getelementptr inbounds nuw i8, ptr %25, i64 32
  %31 = load ptr, ptr %30, align 8
  %.not24 = icmp eq ptr %31, null
  br i1 %.not24, label %32, label %44

32:                                               ; preds = %29
  %33 = getelementptr inbounds nuw i8, ptr %1, i64 8
  %34 = load ptr, ptr %33, align 8
  tail call void @col_append_str(ptr noundef %34, i32 noundef 25, ptr noundef nonnull @.str.297)
  %35 = tail call ptr @wmem_file_scope()
  %36 = getelementptr inbounds nuw i8, ptr %0, i64 8
  %37 = load ptr, ptr %36, align 8
  %38 = tail call noalias noundef dereferenceable_or_null(12) ptr @wmem_alloc(ptr noundef %35, i64 noundef 12) #12
  tail call void @llvm.memcpy.p0.p0.i64(ptr noundef align 4 dereferenceable(12) %38, ptr noundef readonly align 4 dereferenceable(12) %37, i64 12, i1 false)
  %39 = load ptr, ptr %0, align 8
  %40 = getelementptr inbounds nuw i8, ptr %39, i64 32
  store ptr %38, ptr %40, align 8
  %41 = load ptr, ptr @tls_handle, align 8
  %42 = load ptr, ptr @tcpcl_handle, align 8
  %43 = tail call i32 @ssl_starttls_ack(ptr noundef %41, ptr noundef %1, ptr noundef %42)
  %.pre = load ptr, ptr %0, align 8
  br label %44

44:                                               ; preds = %16, %29, %32, %11, %7, %2
  %45 = phi ptr [ %25, %16 ], [ %25, %29 ], [ %.pre, %32 ], [ %3, %11 ], [ %3, %7 ], [ %3, %2 ]
  %46 = getelementptr inbounds nuw i8, ptr %45, i64 40
  %47 = load i8, ptr %46, align 8, !range !8, !noundef !9
  %48 = trunc nuw i8 %47 to i1
  br i1 %48, label %66, label %49

49:                                               ; preds = %44
  %50 = load ptr, ptr %45, align 8
  %51 = getelementptr inbounds nuw i8, ptr %50, i64 48
  %52 = load ptr, ptr %51, align 8
  %.not25 = icmp eq ptr %52, null
  br i1 %.not25, label %66, label %53

53:                                               ; preds = %49
  %54 = getelementptr inbounds nuw i8, ptr %45, i64 8
  %55 = load ptr, ptr %54, align 8
  %56 = getelementptr inbounds nuw i8, ptr %55, i64 48
  %57 = load ptr, ptr %56, align 8
  %.not26 = icmp eq ptr %57, null
  br i1 %.not26, label %66, label %58

58:                                               ; preds = %53
  %59 = getelementptr inbounds nuw i8, ptr %50, i64 56
  %60 = load i16, ptr %59, align 8
  %61 = getelementptr inbounds nuw i8, ptr %55, i64 56
  %62 = load i16, ptr %61, align 8
  %. = tail call i16 @llvm.umin.i16(i16 %60, i16 %62)
  %63 = getelementptr inbounds nuw i8, ptr %45, i64 42
  store i16 %., ptr %63, align 2
  %64 = load ptr, ptr %0, align 8
  %65 = getelementptr inbounds nuw i8, ptr %64, i64 40
  store i8 1, ptr %65, align 8
  br label %66

66:                                               ; preds = %58, %53, %49, %44
  ret void
}